; Function Attrs: mustprogress uwtable
define dso_local void @_Z21OutputGlobalVariablesRSo(ptr noundef nonnull align 8 dereferenceable(8) %0) local_unnamed_addr #4 personality ptr @__gxx_personality_v0 {
  %2 = alloca %"class.std::__cxx11::basic_string", align 8
  %3 = alloca %"class.std::allocator.18", align 1
  call void @_ZNSaIcEC1Ev(ptr noundef nonnull align 1 dereferenceable(1) %3) #19
  invoke void @_ZNSt7__cxx1112basic_stringIcSt11char_traitsIcESaIcEEC1EPKcRKS3_(ptr noundef nonnull align 8 dereferenceable(32) %2, ptr noundef nonnull @.str, ptr noundef nonnull align 1 dereferenceable(1) %3)
          to label %4 unwind label %9

4:                                                ; preds = %1
  invoke void @_Z19output_comment_lineRSoRKNSt7__cxx1112basic_stringIcSt11char_traitsIcESaIcEEE(ptr noundef nonnull align 8 dereferenceable(8) %0, ptr noundef nonnull align 8 dereferenceable(32) %2)
          to label %5 unwind label %11

5:                                                ; preds = %4
  call void @_ZNSt7__cxx1112basic_stringIcSt11char_traitsIcESaIcEED1Ev(ptr noundef nonnull align 8 dereferenceable(32) %2) #19
  call void @_ZNSaIcED1Ev(ptr noundef nonnull align 1 dereferenceable(1) %3) #19
  %6 = call noundef zeroext i1 @_ZN9CGOptions11access_onceEv()
  %7 = call noundef zeroext i1 @_ZN9CGOptions11access_onceEb(i1 noundef zeroext false)
  call void @_Z18OutputVariableListRKSt6vectorIP8VariableSaIS1_EERSoi(ptr noundef nonnull align 8 dereferenceable(24) @_ZN16VariableSelector10GlobalListE, ptr noundef nonnull align 8 dereferenceable(8) %0, i32 noundef 0)
  %8 = call noundef zeroext i1 @_ZN9CGOptions11access_onceEb(i1 noundef zeroext %6)
  ret void

9:                                                ; preds = %1
  %10 = landingpad { ptr, i32 }
          cleanup
  br label %13

11:                                               ; preds = %4
  %12 = landingpad { ptr, i32 }
          cleanup
  call void @_ZNSt7__cxx1112basic_stringIcSt11char_traitsIcESaIcEED1Ev(ptr noundef nonnull align 8 dereferenceable(32) %2) #19
  br label %13

13:                                               ; preds = %11, %9
  %.pn = phi { ptr, i32 } [ %12, %11 ], [ %10, %9 ]
  call void @_ZNSaIcED1Ev(ptr noundef nonnull align 1 dereferenceable(1) %3) #19
  resume { ptr, i32 } %.pn
}